target datalayout = "e-m:e-p270:32:32-p271:32:32-p272:64:64-i64:64-i128:128-f80:128-n8:16:32:64-S128"
target triple = "x86_64-pc-linux-gnu"

%struct.set_raw_client_data = type { ptr, i32, ptr, i32, i32 }

; Function Attrs: nounwind sspstrong uwtable
define internal void @error_callback_(ptr noundef %0, i32 noundef %1, ptr noundef %2) #0 {
  %4 = alloca ptr, align 8
  %5 = alloca i32, align 4
  %6 = alloca ptr, align 8
  %7 = alloca ptr, align 8
  store ptr %0, ptr %4, align 8, !tbaa !27
  store i32 %1, ptr %5, align 4, !tbaa !3
  store ptr %2, ptr %6, align 8, !tbaa !27
  call void @llvm.lifetime.start.p0(i64 8, ptr %7) #12
  %8 = load ptr, ptr %6, align 8, !tbaa !27
  store ptr %8, ptr %7, align 8, !tbaa !27
  %9 = load i32, ptr %5, align 4, !tbaa !3
  %10 = icmp ne i32 %9, 0
  br i1 %10, label %11, label %14

11:                                               ; preds = %3
  %12 = load ptr, ptr %7, align 8, !tbaa !27
  %13 = getelementptr inbounds nuw %struct.set_raw_client_data, ptr %12, i32 0, i32 1
  store i32 1, ptr %13, align 8, !tbaa !113
  br label %14

14:                                               ; preds = %11, %3
  call void @llvm.lifetime.end.p0(i64 8, ptr %7) #12
  ret void
}