; Function Attrs: mustprogress nofree norecurse nosync nounwind sspstrong willreturn memory(argmem: write) uwtable
define internal void @error_callback_(ptr readnone captures(none) %0, i32 noundef %1, ptr noundef writeonly captures(none) %2) #21 {
  %.not = icmp eq i32 %1, 0
  br i1 %.not, label %6, label %4

4:                                                ; preds = %3
  %5 = getelementptr inbounds nuw i8, ptr %2, i64 8
  store i32 1, ptr %5, align 8, !tbaa !103
  br label %6

6:                                                ; preds = %4, %3
  ret void
}